target datalayout = "e-m:e-p270:32:32-p271:32:32-p272:64:64-i64:64-i128:128-f80:128-n8:16:32:64-S128"
target triple = "x86_64-pc-linux-gnu"

@registered_followers = internal global ptr null, align 8

; Function Attrs: null_pointer_is_valid sspstrong uwtable
define ptr @get_follow_by_proto_id(i32 noundef %0) #0 {
  %2 = alloca ptr, align 8
  %3 = alloca i32, align 4
  %4 = alloca ptr, align 8
  %5 = alloca i32, align 4
  store i32 %0, ptr %3, align 4
  call void @llvm.lifetime.start.p0(i64 8, ptr %4) #14
  %6 = load i32, ptr %3, align 4
  %7 = call ptr @find_protocol_by_id(i32 noundef %6)
  store ptr %7, ptr %4, align 8
  %8 = load ptr, ptr %4, align 8
  %9 = icmp eq ptr %8, null
  br i1 %9, label %10, label %11

10:                                               ; preds = %1
  store ptr null, ptr %2, align 8
  store i32 1, ptr %5, align 4
  br label %16

11:                                               ; preds = %1
  %12 = load ptr, ptr @registered_followers, align 8
  %13 = load ptr, ptr %4, align 8
  %14 = call ptr @proto_get_protocol_short_name(ptr noundef %13)
  %15 = call ptr @wmem_tree_lookup_string(ptr noundef %12, ptr noundef %14, i32 noundef 0)
  store ptr %15, ptr %2, align 8
  store i32 1, ptr %5, align 4
  br label %16

16:                                               ; preds = %11, %10
  call void @llvm.lifetime.end.p0(i64 8, ptr %4) #14
  %17 = load ptr, ptr %2, align 8
  ret ptr %17
}