; Function Attrs: null_pointer_is_valid sspstrong uwtable
define ptr @get_follow_by_proto_id(i32 noundef %0) local_unnamed_addr #0 {
  %2 = tail call ptr @find_protocol_by_id(i32 noundef %0)
  %3 = icmp eq ptr %2, null
  br i1 %3, label %8, label %4

4:                                                ; preds = %1
  %5 = load ptr, ptr @registered_followers, align 8
  %6 = tail call ptr @proto_get_protocol_short_name(ptr noundef nonnull %2)
  %7 = tail call ptr @wmem_tree_lookup_string(ptr noundef %5, ptr noundef %6, i32 noundef 0)
  br label %8

8:                                                ; preds = %1, %4
  %.0 = phi ptr [ %7, %4 ], [ null, %1 ]
  ret ptr %.0
}